target datalayout = "e-m:e-p270:32:32-p271:32:32-p272:64:64-i64:64-i128:128-f80:128-n8:16:32:64-S128"
target triple = "x86_64-pc-linux-gnu"

%"class.std::__cxx11::basic_string" = type { %"struct.std::__cxx11::basic_string<char>::_Alloc_hider", i64, %union.anon }
%"struct.std::__cxx11::basic_string<char>::_Alloc_hider" = type { ptr }
%union.anon = type { i64, [8 x i8] }
%"class.std::unique_ptr.34" = type { %"struct.std::__uniq_ptr_data.35" }
%"struct.std::__uniq_ptr_data.35" = type { %"class.std::__uniq_ptr_impl.36" }
%"class.std::__uniq_ptr_impl.36" = type { %"class.std::tuple.37" }
%"class.std::tuple.37" = type { %"struct.std::_Tuple_impl.38" }
%"struct.std::_Tuple_impl.38" = type { %"struct.std::_Head_base.41" }
%"struct.std::_Head_base.41" = type { ptr }
%"class.osgeo::proj::DiskChunkCache" = type { ptr, %"class.std::__cxx11::basic_string", ptr, %"class.std::unique_ptr.34" }
%"class.std::unique_ptr.48" = type { %"struct.std::__uniq_ptr_data.49" }
%"struct.std::__uniq_ptr_data.49" = type { %"class.std::__uniq_ptr_impl.50" }
%"class.std::__uniq_ptr_impl.50" = type { %"class.std::tuple.51" }
%"class.std::tuple.51" = type { %"struct.std::_Tuple_impl.52" }
%"struct.std::_Tuple_impl.52" = type { %"struct.std::_Head_base.55" }
%"struct.std::_Head_base.55" = type { ptr }
%"class.osgeo::proj::SQLiteStatement" = type { ptr, i32, i32 }

@.str.3 = private unnamed_addr constant [3 x i8] c"%s\00", align 1
@.str.37 = private unnamed_addr constant [54 x i8] c"UPDATE linked_chunks_head_tail SET head = ?, tail = ?\00", align 1

; Function Attrs: mustprogress nounwind uwtable
define linkonce_odr hidden noundef nonnull align 8 dereferenceable(8) ptr @_ZNSt10_Head_baseILm0EPN5osgeo4proj15SQLiteStatementELb0EE7_M_headERKS4_(ptr noundef nonnull align 8 dereferenceable(8) %0) #6 comdat align 2 {
  %2 = alloca ptr, align 8
  store ptr %0, ptr %2, align 8, !tbaa !422
  %3 = load ptr, ptr %2, align 8, !tbaa !422
  %4 = getelementptr inbounds nuw %"struct.std::_Head_base.55", ptr %3, i32 0, i32 0
  ret ptr %4
}

; Function Attrs: mustprogress nounwind uwtable
define linkonce_odr hidden noundef nonnull align 8 dereferenceable(8) ptr @_ZNSt11_Tuple_implILm0EJPN5osgeo4proj15SQLiteStatementESt14default_deleteIS2_EEE7_M_headERKS6_(ptr noundef nonnull align 8 dereferenceable(8) %0) #6 comdat align 2 {
  %2 = alloca ptr, align 8
  store ptr %0, ptr %2, align 8, !tbaa !420
  %3 = load ptr, ptr %2, align 8, !tbaa !420
  %4 = call noundef nonnull align 8 dereferenceable(8) ptr @_ZNSt10_Head_baseILm0EPN5osgeo4proj15SQLiteStatementELb0EE7_M_headERKS4_(ptr noundef nonnull align 8 dereferenceable(8) %3) #4
  ret ptr %4
}

; Function Attrs: mustprogress nounwind uwtable
define linkonce_odr hidden noundef nonnull align 8 dereferenceable(8) ptr @_ZSt12__get_helperILm0EPN5osgeo4proj15SQLiteStatementEJSt14default_deleteIS2_EEERKT0_RKSt11_Tuple_implIXT_EJS6_DpT1_EE(ptr noundef nonnull align 8 dereferenceable(8) %0) #6 comdat {
  %2 = alloca ptr, align 8
  store ptr %0, ptr %2, align 8, !tbaa !420
  %3 = load ptr, ptr %2, align 8, !tbaa !420
  %4 = call noundef nonnull align 8 dereferenceable(8) ptr @_ZNSt11_Tuple_implILm0EJPN5osgeo4proj15SQLiteStatementESt14default_deleteIS2_EEE7_M_headERKS6_(ptr noundef nonnull align 8 dereferenceable(8) %3) #4
  ret ptr %4
}

; Function Attrs: mustprogress nounwind uwtable
define linkonce_odr hidden noundef nonnull align 8 dereferenceable(8) ptr @_ZSt3getILm0EJPN5osgeo4proj15SQLiteStatementESt14default_deleteIS2_EEERKNSt13tuple_elementIXT_ESt5tupleIJDpT0_EEE4typeERKSA_(ptr noundef nonnull align 8 dereferenceable(8) %0) #6 comdat {
  %2 = alloca ptr, align 8
  store ptr %0, ptr %2, align 8, !tbaa !418
  %3 = load ptr, ptr %2, align 8, !tbaa !418
  %4 = call noundef nonnull align 8 dereferenceable(8) ptr @_ZSt12__get_helperILm0EPN5osgeo4proj15SQLiteStatementEJSt14default_deleteIS2_EEERKT0_RKSt11_Tuple_implIXT_EJS6_DpT1_EE(ptr noundef nonnull align 8 dereferenceable(8) %3) #4
  ret ptr %4
}

; Function Attrs: mustprogress nounwind uwtable
define linkonce_odr hidden noundef ptr @_ZNKSt15__uniq_ptr_implIN5osgeo4proj15SQLiteStatementESt14default_deleteIS2_EE6_M_ptrEv(ptr noundef nonnull align 8 dereferenceable(8) %0) #6 comdat align 2 {
  %2 = alloca ptr, align 8
  store ptr %0, ptr %2, align 8, !tbaa !414
  %3 = load ptr, ptr %2, align 8
  %4 = getelementptr inbounds nuw %"class.std::__uniq_ptr_impl.50", ptr %3, i32 0, i32 0
  %5 = call noundef nonnull align 8 dereferenceable(8) ptr @_ZSt3getILm0EJPN5osgeo4proj15SQLiteStatementESt14default_deleteIS2_EEERKNSt13tuple_elementIXT_ESt5tupleIJDpT0_EEE4typeERKSA_(ptr noundef nonnull align 8 dereferenceable(8) %4) #4
  %6 = load ptr, ptr %5, align 8, !tbaa !84
  ret ptr %6
}

; Function Attrs: mustprogress nounwind uwtable
define linkonce_odr hidden noundef ptr @_ZNKSt10unique_ptrIN5osgeo4proj15SQLiteStatementESt14default_deleteIS2_EE3getEv(ptr noundef nonnull align 8 dereferenceable(8) %0) #6 comdat align 2 {
  %2 = alloca ptr, align 8
  store ptr %0, ptr %2, align 8, !tbaa !82
  %3 = load ptr, ptr %2, align 8
  %4 = getelementptr inbounds nuw %"class.std::unique_ptr.48", ptr %3, i32 0, i32 0
  %5 = call noundef ptr @_ZNKSt15__uniq_ptr_implIN5osgeo4proj15SQLiteStatementESt14default_deleteIS2_EE6_M_ptrEv(ptr noundef nonnull align 8 dereferenceable(8) %4) #4
  ret ptr %5
}

; Function Attrs: mustprogress uwtable
define linkonce_odr hidden noundef i32 @_ZN5osgeo4proj15SQLiteStatement7executeEv(ptr noundef nonnull align 8 dereferenceable(16) %0) #5 comdat align 2 {
  %2 = alloca ptr, align 8
  store ptr %0, ptr %2, align 8, !tbaa !84
  %3 = load ptr, ptr %2, align 8
  %4 = getelementptr inbounds nuw %"class.osgeo::proj::SQLiteStatement", ptr %3, i32 0, i32 0
  %5 = load ptr, ptr %4, align 8, !tbaa !86
  %6 = call i32 @sqlite3_step(ptr noundef %5)
  ret i32 %6
}

; Function Attrs: mustprogress uwtable
define linkonce_odr hidden void @_ZN5osgeo4proj15SQLiteStatement8bindNullEv(ptr noundef nonnull align 8 dereferenceable(16) %0) #5 comdat align 2 {
  %2 = alloca ptr, align 8
  store ptr %0, ptr %2, align 8, !tbaa !84
  %3 = load ptr, ptr %2, align 8
  %4 = getelementptr inbounds nuw %"class.osgeo::proj::SQLiteStatement", ptr %3, i32 0, i32 0
  %5 = load ptr, ptr %4, align 8, !tbaa !86
  %6 = getelementptr inbounds nuw %"class.osgeo::proj::SQLiteStatement", ptr %3, i32 0, i32 1
  %7 = load i32, ptr %6, align 8, !tbaa !95
  %8 = call i32 @sqlite3_bind_null(ptr noundef %5, i32 noundef %7)
  %9 = getelementptr inbounds nuw %"class.osgeo::proj::SQLiteStatement", ptr %3, i32 0, i32 1
  %10 = load i32, ptr %9, align 8, !tbaa !95
  %11 = add nsw i32 %10, 1
  store i32 %11, ptr %9, align 8, !tbaa !95
  ret void
}

; Function Attrs: mustprogress uwtable
define linkonce_odr hidden void @_ZN5osgeo4proj15SQLiteStatement9bindInt64Ex(ptr noundef nonnull align 8 dereferenceable(16) %0, i64 noundef %1) #5 comdat align 2 {
  %3 = alloca ptr, align 8
  %4 = alloca i64, align 8
  store ptr %0, ptr %3, align 8, !tbaa !84
  store i64 %1, ptr %4, align 8, !tbaa !77
  %5 = load ptr, ptr %3, align 8
  %6 = getelementptr inbounds nuw %"class.osgeo::proj::SQLiteStatement", ptr %5, i32 0, i32 0
  %7 = load ptr, ptr %6, align 8, !tbaa !86
  %8 = getelementptr inbounds nuw %"class.osgeo::proj::SQLiteStatement", ptr %5, i32 0, i32 1
  %9 = load i32, ptr %8, align 8, !tbaa !95
  %10 = load i64, ptr %4, align 8, !tbaa !77
  %11 = call i32 @sqlite3_bind_int64(ptr noundef %7, i32 noundef %9, i64 noundef %10)
  %12 = getelementptr inbounds nuw %"class.osgeo::proj::SQLiteStatement", ptr %5, i32 0, i32 1
  %13 = load i32, ptr %12, align 8, !tbaa !95
  %14 = add nsw i32 %13, 1
  store i32 %14, ptr %12, align 8, !tbaa !95
  ret void
}

; Function Attrs: mustprogress nounwind uwtable
define linkonce_odr hidden noundef ptr @_ZNKSt10unique_ptrIN5osgeo4proj15SQLiteStatementESt14default_deleteIS2_EEptEv(ptr noundef nonnull align 8 dereferenceable(8) %0) #6 comdat align 2 {
  %2 = alloca ptr, align 8
  store ptr %0, ptr %2, align 8, !tbaa !82
  %3 = load ptr, ptr %2, align 8
  %4 = call noundef ptr @_ZNKSt10unique_ptrIN5osgeo4proj15SQLiteStatementESt14default_deleteIS2_EE3getEv(ptr noundef nonnull align 8 dereferenceable(8) %3) #4
  ret ptr %4
}

; Function Attrs: mustprogress nounwind uwtable
define linkonce_odr hidden noundef zeroext i1 @_ZNKSt10unique_ptrIN5osgeo4proj15SQLiteStatementESt14default_deleteIS2_EEcvbEv(ptr noundef nonnull align 8 dereferenceable(8) %0) #6 comdat align 2 {
  %2 = alloca ptr, align 8
  store ptr %0, ptr %2, align 8, !tbaa !82
  %3 = load ptr, ptr %2, align 8
  %4 = call noundef ptr @_ZNKSt10unique_ptrIN5osgeo4proj15SQLiteStatementESt14default_deleteIS2_EE3getEv(ptr noundef nonnull align 8 dereferenceable(8) %3) #4
  %5 = icmp eq ptr %4, null
  %6 = select i1 %5, i1 false, i1 true
  ret i1 %6
}

; Function Attrs: mustprogress uwtable
define hidden noundef zeroext i1 @_ZN5osgeo4proj14DiskChunkCache30update_linked_chunks_head_tailExx(ptr noundef nonnull align 8 dereferenceable(56) %0, i64 noundef %1, i64 noundef %2) #5 align 2 personality ptr @__gxx_personality_v0 {
  %4 = alloca i1, align 1
  %5 = alloca ptr, align 8
  %6 = alloca i64, align 8
  %7 = alloca i64, align 8
  %8 = alloca %"class.std::unique_ptr.48", align 8
  %9 = alloca i32, align 4
  %10 = alloca ptr, align 8
  %11 = alloca i32, align 4
  %12 = alloca i32, align 4
  store ptr %0, ptr %5, align 8, !tbaa !49
  store i64 %1, ptr %6, align 8, !tbaa !77
  store i64 %2, ptr %7, align 8, !tbaa !77
  %13 = load ptr, ptr %5, align 8
  call void @llvm.lifetime.start.p0(i64 8, ptr %8) #4
  call void @_ZN5osgeo4proj14DiskChunkCache7prepareEPKc(ptr dead_on_unwind writable sret(%"class.std::unique_ptr.48") align 8 %8, ptr noundef nonnull align 8 dereferenceable(56) %13, ptr noundef @.str.37)
  %14 = call noundef zeroext i1 @_ZNKSt10unique_ptrIN5osgeo4proj15SQLiteStatementESt14default_deleteIS2_EEcvbEv(ptr noundef nonnull align 8 dereferenceable(8) %8) #4
  br i1 %14, label %16, label %15

15:                                               ; preds = %3
  store i1 false, ptr %4, align 1
  store i32 1, ptr %9, align 4
  br label %60

16:                                               ; preds = %3
  %17 = load i64, ptr %6, align 8, !tbaa !77
  %18 = icmp ne i64 %17, 0
  br i1 %18, label %19, label %27

19:                                               ; preds = %16
  %20 = call noundef ptr @_ZNKSt10unique_ptrIN5osgeo4proj15SQLiteStatementESt14default_deleteIS2_EEptEv(ptr noundef nonnull align 8 dereferenceable(8) %8) #4
  %21 = load i64, ptr %6, align 8, !tbaa !77
  invoke void @_ZN5osgeo4proj15SQLiteStatement9bindInt64Ex(ptr noundef nonnull align 8 dereferenceable(16) %20, i64 noundef %21)
          to label %22 unwind label %23

22:                                               ; preds = %19
  br label %30

23:                                               ; preds = %37, %33, %27, %19
  %24 = landingpad { ptr, i32 }
          cleanup
  %25 = extractvalue { ptr, i32 } %24, 0
  store ptr %25, ptr %10, align 8
  %26 = extractvalue { ptr, i32 } %24, 1
  store i32 %26, ptr %11, align 4
  br label %62

27:                                               ; preds = %16
  %28 = call noundef ptr @_ZNKSt10unique_ptrIN5osgeo4proj15SQLiteStatementESt14default_deleteIS2_EEptEv(ptr noundef nonnull align 8 dereferenceable(8) %8) #4
  invoke void @_ZN5osgeo4proj15SQLiteStatement8bindNullEv(ptr noundef nonnull align 8 dereferenceable(16) %28)
          to label %29 unwind label %23

29:                                               ; preds = %27
  br label %30

30:                                               ; preds = %29, %22
  %31 = load i64, ptr %7, align 8, !tbaa !77
  %32 = icmp ne i64 %31, 0
  br i1 %32, label %33, label %37

33:                                               ; preds = %30
  %34 = call noundef ptr @_ZNKSt10unique_ptrIN5osgeo4proj15SQLiteStatementESt14default_deleteIS2_EEptEv(ptr noundef nonnull align 8 dereferenceable(8) %8) #4
  %35 = load i64, ptr %7, align 8, !tbaa !77
  invoke void @_ZN5osgeo4proj15SQLiteStatement9bindInt64Ex(ptr noundef nonnull align 8 dereferenceable(16) %34, i64 noundef %35)
          to label %36 unwind label %23

36:                                               ; preds = %33
  br label %40

37:                                               ; preds = %30
  %38 = call noundef ptr @_ZNKSt10unique_ptrIN5osgeo4proj15SQLiteStatementESt14default_deleteIS2_EEptEv(ptr noundef nonnull align 8 dereferenceable(8) %8) #4
  invoke void @_ZN5osgeo4proj15SQLiteStatement8bindNullEv(ptr noundef nonnull align 8 dereferenceable(16) %38)
          to label %39 unwind label %23

39:                                               ; preds = %37
  br label %40

40:                                               ; preds = %39, %36
  call void @llvm.lifetime.start.p0(i64 4, ptr %12) #4
  %41 = call noundef ptr @_ZNKSt10unique_ptrIN5osgeo4proj15SQLiteStatementESt14default_deleteIS2_EEptEv(ptr noundef nonnull align 8 dereferenceable(8) %8) #4
  %42 = invoke noundef i32 @_ZN5osgeo4proj15SQLiteStatement7executeEv(ptr noundef nonnull align 8 dereferenceable(16) %41)
          to label %43 unwind label %54

43:                                               ; preds = %40
  store i32 %42, ptr %12, align 4, !tbaa !62
  %44 = load i32, ptr %12, align 4, !tbaa !62
  %45 = icmp ne i32 %44, 101
  br i1 %45, label %46, label %58

46:                                               ; preds = %43
  %47 = getelementptr inbounds nuw %"class.osgeo::proj::DiskChunkCache", ptr %13, i32 0, i32 0
  %48 = load ptr, ptr %47, align 8, !tbaa !51
  %49 = getelementptr inbounds nuw %"class.osgeo::proj::DiskChunkCache", ptr %13, i32 0, i32 2
  %50 = load ptr, ptr %49, align 8, !tbaa !61
  %51 = invoke ptr @sqlite3_errmsg(ptr noundef %50)
          to label %52 unwind label %54

52:                                               ; preds = %46
  invoke void (ptr, i32, ptr, ...) @_Z6pj_logP6pj_ctxiPKcz(ptr noundef %48, i32 noundef 1, ptr noundef @.str.3, ptr noundef %51)
          to label %53 unwind label %54

53:                                               ; preds = %52
  store i1 false, ptr %4, align 1
  store i32 1, ptr %9, align 4
  br label %59

54:                                               ; preds = %52, %46, %40
  %55 = landingpad { ptr, i32 }
          cleanup
  %56 = extractvalue { ptr, i32 } %55, 0
  store ptr %56, ptr %10, align 8
  %57 = extractvalue { ptr, i32 } %55, 1
  store i32 %57, ptr %11, align 4
  call void @llvm.lifetime.end.p0(i64 4, ptr %12) #4
  br label %62

58:                                               ; preds = %43
  store i1 true, ptr %4, align 1
  store i32 1, ptr %9, align 4
  br label %59

59:                                               ; preds = %58, %53
  call void @llvm.lifetime.end.p0(i64 4, ptr %12) #4
  br label %60

60:                                               ; preds = %59, %15
  call void @_ZNSt10unique_ptrIN5osgeo4proj15SQLiteStatementESt14default_deleteIS2_EED2Ev(ptr noundef nonnull align 8 dereferenceable(8) %8) #4
  call void @llvm.lifetime.end.p0(i64 8, ptr %8) #4
  %61 = load i1, ptr %4, align 1
  ret i1 %61

62:                                               ; preds = %54, %23
  call void @_ZNSt10unique_ptrIN5osgeo4proj15SQLiteStatementESt14default_deleteIS2_EED2Ev(ptr noundef nonnull align 8 dereferenceable(8) %8) #4
  call void @llvm.lifetime.end.p0(i64 8, ptr %8) #4
  br label %63

63:                                               ; preds = %62
  %64 = load ptr, ptr %10, align 8
  %65 = load i32, ptr %11, align 4
  %66 = insertvalue { ptr, i32 } poison, ptr %64, 0
  %67 = insertvalue { ptr, i32 } %66, i32 %65, 1
  resume { ptr, i32 } %67
}