; Function Attrs: mustprogress uwtable
define hidden noundef zeroext i1 @_ZN5osgeo4proj14DiskChunkCache30update_linked_chunks_head_tailExx(ptr noundef nonnull readonly align 8 captures(none) dereferenceable(56) %0, i64 noundef %1, i64 noundef %2) local_unnamed_addr #3 align 2 personality ptr @__gxx_personality_v0 {
  %4 = alloca %"class.std::unique_ptr.48", align 8
  call void @llvm.lifetime.start.p0(i64 8, ptr nonnull %4) #30
  call void @_ZN5osgeo4proj14DiskChunkCache7prepareEPKc(ptr dead_on_unwind nonnull writable sret(%"class.std::unique_ptr.48") align 8 %4, ptr noundef nonnull align 8 dereferenceable(56) %0, ptr noundef nonnull @.str.37)
  %5 = load ptr, ptr %4, align 8, !tbaa !81
  %.not20 = icmp eq ptr %5, null
  br i1 %.not20, label %_ZNSt10unique_ptrIN5osgeo4proj15SQLiteStatementESt14default_deleteIS2_EED2Ev.exit, label %6

6:                                                ; preds = %3
  %.not = icmp eq i64 %1, 0
  %7 = load ptr, ptr %5, align 8, !tbaa !83
  %8 = getelementptr inbounds nuw i8, ptr %5, i64 8
  %9 = load i32, ptr %8, align 8, !tbaa !97
  br i1 %.not, label %14, label %10

10:                                               ; preds = %6
  %11 = invoke i32 @sqlite3_bind_int64(ptr noundef %7, i32 noundef %9, i64 noundef %1)
          to label %_ZN5osgeo4proj15SQLiteStatement9bindInt64Ex.exit unwind label %12

12:                                               ; preds = %21, %19, %14, %10
  %13 = landingpad { ptr, i32 }
          cleanup
  br label %42

14:                                               ; preds = %6
  %15 = invoke i32 @sqlite3_bind_null(ptr noundef %7, i32 noundef %9)
          to label %_ZN5osgeo4proj15SQLiteStatement9bindInt64Ex.exit unwind label %12

_ZN5osgeo4proj15SQLiteStatement9bindInt64Ex.exit: ; preds = %14, %10
  %16 = load i32, ptr %8, align 8, !tbaa !97
  %17 = add nsw i32 %16, 1
  store i32 %17, ptr %8, align 8, !tbaa !97
  %.not12 = icmp eq i64 %2, 0
  %18 = load ptr, ptr %5, align 8, !tbaa !83
  br i1 %.not12, label %21, label %19

19:                                               ; preds = %_ZN5osgeo4proj15SQLiteStatement9bindInt64Ex.exit
  %20 = invoke i32 @sqlite3_bind_int64(ptr noundef %18, i32 noundef %17, i64 noundef %2)
          to label %_ZN5osgeo4proj15SQLiteStatement9bindInt64Ex.exit15 unwind label %12

21:                                               ; preds = %_ZN5osgeo4proj15SQLiteStatement9bindInt64Ex.exit
  %22 = invoke i32 @sqlite3_bind_null(ptr noundef %18, i32 noundef %17)
          to label %_ZN5osgeo4proj15SQLiteStatement9bindInt64Ex.exit15 unwind label %12

_ZN5osgeo4proj15SQLiteStatement9bindInt64Ex.exit15: ; preds = %21, %19
  %23 = getelementptr inbounds nuw i8, ptr %5, i64 8
  %24 = load i32, ptr %23, align 8, !tbaa !97
  %25 = add nsw i32 %24, 1
  store i32 %25, ptr %23, align 8, !tbaa !97
  %26 = load ptr, ptr %5, align 8, !tbaa !83
  %27 = invoke noundef i32 @sqlite3_step(ptr noundef %26)
          to label %_ZN5osgeo4proj15SQLiteStatement7executeEv.exit unwind label %34

_ZN5osgeo4proj15SQLiteStatement7executeEv.exit:   ; preds = %_ZN5osgeo4proj15SQLiteStatement9bindInt64Ex.exit15
  %.not13 = icmp eq i32 %27, 101
  br i1 %.not13, label %36, label %28

28:                                               ; preds = %_ZN5osgeo4proj15SQLiteStatement7executeEv.exit
  %29 = load ptr, ptr %0, align 8, !tbaa !58
  %30 = getelementptr inbounds nuw i8, ptr %0, i64 40
  %31 = load ptr, ptr %30, align 8, !tbaa !77
  %32 = invoke ptr @sqlite3_errmsg(ptr noundef %31)
          to label %33 unwind label %34

33:                                               ; preds = %28
  invoke void (ptr, i32, ptr, ...) @_Z6pj_logP6pj_ctxiPKcz(ptr noundef %29, i32 noundef 1, ptr noundef nonnull @.str.3, ptr noundef %32)
          to label %36 unwind label %34

34:                                               ; preds = %_ZN5osgeo4proj15SQLiteStatement9bindInt64Ex.exit15, %33, %28
  %35 = landingpad { ptr, i32 }
          cleanup
  br label %42

36:                                               ; preds = %_ZN5osgeo4proj15SQLiteStatement7executeEv.exit, %33
  %37 = load ptr, ptr %5, align 8, !tbaa !83
  %38 = invoke i32 @sqlite3_finalize(ptr noundef %37)
          to label %_ZNKSt14default_deleteIN5osgeo4proj15SQLiteStatementEEclEPS2_.exit.i unwind label %39

39:                                               ; preds = %36
  %40 = landingpad { ptr, i32 }
          catch ptr null
  %41 = extractvalue { ptr, i32 } %40, 0
  tail call void @__clang_call_terminate(ptr %41) #35
  unreachable

_ZNKSt14default_deleteIN5osgeo4proj15SQLiteStatementEEclEPS2_.exit.i: ; preds = %36
  tail call void @_ZdlPvm(ptr noundef nonnull %5, i64 noundef 16) #31
  br label %_ZNSt10unique_ptrIN5osgeo4proj15SQLiteStatementESt14default_deleteIS2_EED2Ev.exit

_ZNSt10unique_ptrIN5osgeo4proj15SQLiteStatementESt14default_deleteIS2_EED2Ev.exit: ; preds = %3, %_ZNKSt14default_deleteIN5osgeo4proj15SQLiteStatementEEclEPS2_.exit.i
  %.019 = phi i1 [ %.not13, %_ZNKSt14default_deleteIN5osgeo4proj15SQLiteStatementEEclEPS2_.exit.i ], [ false, %3 ]
  call void @llvm.lifetime.end.p0(i64 8, ptr nonnull %4) #30
  ret i1 %.019

42:                                               ; preds = %34, %12
  %.pn = phi { ptr, i32 } [ %35, %34 ], [ %13, %12 ]
  call void @_ZNSt10unique_ptrIN5osgeo4proj15SQLiteStatementESt14default_deleteIS2_EED2Ev(ptr noundef nonnull align 8 dereferenceable(8) %4) #30
  call void @llvm.lifetime.end.p0(i64 8, ptr nonnull %4) #30
  resume { ptr, i32 } %.pn
}